target datalayout = "e-m:e-p270:32:32-p271:32:32-p272:64:64-i64:64-i128:128-f80:128-n8:16:32:64-S128"
target triple = "x86_64-pc-linux-gnu"

@hf_cql_string_result_rows_udt_name = internal global i32 0, align 4
@hf_cql_string_result_rows_udt_field_name = internal global i32 0, align 4
@hf_cql_string_result_rows_udt_size = internal global i32 0, align 4
@hf_cql_string_result_rows_keyspace_name = internal global i32 0, align 4
@hf_cql_string_length = internal global i32 0, align 4
@hf_cql_result_rows_tuple_size = internal global i32 0, align 4
@hf_cql_result_rows_data_type = internal global i32 0, align 4

; Function Attrs: null_pointer_is_valid sspstrong uwtable
define internal i32 @parse_option(ptr noundef %0, ptr noundef %1, ptr noundef %2, i32 noundef %3) #0 {
  %5 = alloca ptr, align 8
  %6 = alloca ptr, align 8
  %7 = alloca ptr, align 8
  %8 = alloca i32, align 4
  %9 = alloca i32, align 4
  %10 = alloca i32, align 4
  %11 = alloca i32, align 4
  %12 = alloca i32, align 4
  %13 = alloca i32, align 4
  store ptr %0, ptr %5, align 8
  store ptr %1, ptr %6, align 8
  store ptr %2, ptr %7, align 8
  store i32 %3, ptr %8, align 4
  call void @llvm.lifetime.start.p0(i64 4, ptr %9) #8
  store i32 0, ptr %9, align 4
  call void @llvm.lifetime.start.p0(i64 4, ptr %10) #8
  store i32 0, ptr %10, align 4
  call void @llvm.lifetime.start.p0(i64 4, ptr %11) #8
  store i32 0, ptr %11, align 4
  call void @llvm.lifetime.start.p0(i64 4, ptr %12) #8
  store i32 0, ptr %12, align 4
  call void @llvm.lifetime.start.p0(i64 4, ptr %13) #8
  store i32 0, ptr %13, align 4
  %14 = load ptr, ptr %5, align 8
  %15 = load i32, ptr @hf_cql_result_rows_data_type, align 4
  %16 = load ptr, ptr %7, align 8
  %17 = load i32, ptr %8, align 4
  %18 = call ptr @proto_tree_add_item_ret_uint(ptr noundef %14, i32 noundef %15, ptr noundef %16, i32 noundef %17, i32 noundef 2, i32 noundef 0, ptr noundef %9)
  %19 = load i32, ptr %8, align 4
  %20 = add i32 %19, 2
  store i32 %20, ptr %8, align 4
  %21 = load ptr, ptr %6, align 8
  call void @increment_dissection_depth(ptr noundef %21)
  %22 = load i32, ptr %9, align 4
  switch i32 %22, label %138 [
    i32 32, label %23
    i32 33, label %29
    i32 34, label %40
    i32 48, label %46
    i32 49, label %116
  ]

23:                                               ; preds = %4
  %24 = load ptr, ptr %5, align 8
  %25 = load ptr, ptr %6, align 8
  %26 = load ptr, ptr %7, align 8
  %27 = load i32, ptr %8, align 4
  %28 = call i32 @parse_option(ptr noundef %24, ptr noundef %25, ptr noundef %26, i32 noundef %27)
  store i32 %28, ptr %8, align 4
  br label %139

29:                                               ; preds = %4
  %30 = load ptr, ptr %5, align 8
  %31 = load ptr, ptr %6, align 8
  %32 = load ptr, ptr %7, align 8
  %33 = load i32, ptr %8, align 4
  %34 = call i32 @parse_option(ptr noundef %30, ptr noundef %31, ptr noundef %32, i32 noundef %33)
  store i32 %34, ptr %8, align 4
  %35 = load ptr, ptr %5, align 8
  %36 = load ptr, ptr %6, align 8
  %37 = load ptr, ptr %7, align 8
  %38 = load i32, ptr %8, align 4
  %39 = call i32 @parse_option(ptr noundef %35, ptr noundef %36, ptr noundef %37, i32 noundef %38)
  store i32 %39, ptr %8, align 4
  br label %139

40:                                               ; preds = %4
  %41 = load ptr, ptr %5, align 8
  %42 = load ptr, ptr %6, align 8
  %43 = load ptr, ptr %7, align 8
  %44 = load i32, ptr %8, align 4
  %45 = call i32 @parse_option(ptr noundef %41, ptr noundef %42, ptr noundef %43, i32 noundef %44)
  store i32 %45, ptr %8, align 4
  br label %139

46:                                               ; preds = %4
  %47 = load ptr, ptr %5, align 8
  %48 = load i32, ptr @hf_cql_string_length, align 4
  %49 = load ptr, ptr %7, align 8
  %50 = load i32, ptr %8, align 4
  %51 = call ptr @proto_tree_add_item_ret_uint(ptr noundef %47, i32 noundef %48, ptr noundef %49, i32 noundef %50, i32 noundef 2, i32 noundef 0, ptr noundef %10)
  %52 = load i32, ptr %8, align 4
  %53 = add i32 %52, 2
  store i32 %53, ptr %8, align 4
  %54 = load ptr, ptr %5, align 8
  %55 = load i32, ptr @hf_cql_string_result_rows_keyspace_name, align 4
  %56 = load ptr, ptr %7, align 8
  %57 = load i32, ptr %8, align 4
  %58 = load i32, ptr %10, align 4
  %59 = call ptr @proto_tree_add_item(ptr noundef %54, i32 noundef %55, ptr noundef %56, i32 noundef %57, i32 noundef %58, i32 noundef 2)
  %60 = load i32, ptr %10, align 4
  %61 = load i32, ptr %8, align 4
  %62 = add i32 %61, %60
  store i32 %62, ptr %8, align 4
  %63 = load ptr, ptr %5, align 8
  %64 = load i32, ptr @hf_cql_string_length, align 4
  %65 = load ptr, ptr %7, align 8
  %66 = load i32, ptr %8, align 4
  %67 = call ptr @proto_tree_add_item_ret_uint(ptr noundef %63, i32 noundef %64, ptr noundef %65, i32 noundef %66, i32 noundef 2, i32 noundef 0, ptr noundef %10)
  %68 = load i32, ptr %8, align 4
  %69 = add i32 %68, 2
  store i32 %69, ptr %8, align 4
  %70 = load ptr, ptr %5, align 8
  %71 = load i32, ptr @hf_cql_string_result_rows_udt_name, align 4
  %72 = load ptr, ptr %7, align 8
  %73 = load i32, ptr %8, align 4
  %74 = load i32, ptr %10, align 4
  %75 = call ptr @proto_tree_add_item(ptr noundef %70, i32 noundef %71, ptr noundef %72, i32 noundef %73, i32 noundef %74, i32 noundef 2)
  %76 = load i32, ptr %10, align 4
  %77 = load i32, ptr %8, align 4
  %78 = add i32 %77, %76
  store i32 %78, ptr %8, align 4
  %79 = load ptr, ptr %5, align 8
  %80 = load i32, ptr @hf_cql_string_result_rows_udt_size, align 4
  %81 = load ptr, ptr %7, align 8
  %82 = load i32, ptr %8, align 4
  %83 = call ptr @proto_tree_add_item_ret_uint(ptr noundef %79, i32 noundef %80, ptr noundef %81, i32 noundef %82, i32 noundef 2, i32 noundef 0, ptr noundef %12)
  %84 = load i32, ptr %8, align 4
  %85 = add i32 %84, 2
  store i32 %85, ptr %8, align 4
  store i32 0, ptr %13, align 4
  br label %86

86:                                               ; preds = %112, %46
  %87 = load i32, ptr %13, align 4
  %88 = load i32, ptr %12, align 4
  %89 = icmp ult i32 %87, %88
  br i1 %89, label %90, label %115

90:                                               ; preds = %86
  %91 = load ptr, ptr %5, align 8
  %92 = load i32, ptr @hf_cql_string_length, align 4
  %93 = load ptr, ptr %7, align 8
  %94 = load i32, ptr %8, align 4
  %95 = call ptr @proto_tree_add_item_ret_uint(ptr noundef %91, i32 noundef %92, ptr noundef %93, i32 noundef %94, i32 noundef 2, i32 noundef 0, ptr noundef %10)
  %96 = load i32, ptr %8, align 4
  %97 = add i32 %96, 2
  store i32 %97, ptr %8, align 4
  %98 = load ptr, ptr %5, align 8
  %99 = load i32, ptr @hf_cql_string_result_rows_udt_field_name, align 4
  %100 = load ptr, ptr %7, align 8
  %101 = load i32, ptr %8, align 4
  %102 = load i32, ptr %10, align 4
  %103 = call ptr @proto_tree_add_item(ptr noundef %98, i32 noundef %99, ptr noundef %100, i32 noundef %101, i32 noundef %102, i32 noundef 2)
  %104 = load i32, ptr %10, align 4
  %105 = load i32, ptr %8, align 4
  %106 = add i32 %105, %104
  store i32 %106, ptr %8, align 4
  %107 = load ptr, ptr %5, align 8
  %108 = load ptr, ptr %6, align 8
  %109 = load ptr, ptr %7, align 8
  %110 = load i32, ptr %8, align 4
  %111 = call i32 @parse_option(ptr noundef %107, ptr noundef %108, ptr noundef %109, i32 noundef %110)
  store i32 %111, ptr %8, align 4
  br label %112

112:                                              ; preds = %90
  %113 = load i32, ptr %13, align 4
  %114 = add i32 %113, 1
  store i32 %114, ptr %13, align 4
  br label %86, !llvm.loop !23

115:                                              ; preds = %86
  br label %139

116:                                              ; preds = %4
  %117 = load ptr, ptr %5, align 8
  %118 = load i32, ptr @hf_cql_result_rows_tuple_size, align 4
  %119 = load ptr, ptr %7, align 8
  %120 = load i32, ptr %8, align 4
  %121 = call ptr @proto_tree_add_item_ret_uint(ptr noundef %117, i32 noundef %118, ptr noundef %119, i32 noundef %120, i32 noundef 2, i32 noundef 0, ptr noundef %11)
  %122 = load i32, ptr %8, align 4
  %123 = add i32 %122, 2
  store i32 %123, ptr %8, align 4
  store i32 0, ptr %13, align 4
  br label %124

124:                                              ; preds = %134, %116
  %125 = load i32, ptr %13, align 4
  %126 = load i32, ptr %11, align 4
  %127 = icmp ult i32 %125, %126
  br i1 %127, label %128, label %137

128:                                              ; preds = %124
  %129 = load ptr, ptr %5, align 8
  %130 = load ptr, ptr %6, align 8
  %131 = load ptr, ptr %7, align 8
  %132 = load i32, ptr %8, align 4
  %133 = call i32 @parse_option(ptr noundef %129, ptr noundef %130, ptr noundef %131, i32 noundef %132)
  store i32 %133, ptr %8, align 4
  br label %134

134:                                              ; preds = %128
  %135 = load i32, ptr %13, align 4
  %136 = add i32 %135, 1
  store i32 %136, ptr %13, align 4
  br label %124, !llvm.loop !24

137:                                              ; preds = %124
  br label %139

138:                                              ; preds = %4
  br label %139

139:                                              ; preds = %138, %137, %115, %40, %29, %23
  %140 = load ptr, ptr %6, align 8
  call void @decrement_dissection_depth(ptr noundef %140)
  %141 = load i32, ptr %8, align 4
  call void @llvm.lifetime.end.p0(i64 4, ptr %13) #8
  call void @llvm.lifetime.end.p0(i64 4, ptr %12) #8
  call void @llvm.lifetime.end.p0(i64 4, ptr %11) #8
  call void @llvm.lifetime.end.p0(i64 4, ptr %10) #8
  call void @llvm.lifetime.end.p0(i64 4, ptr %9) #8
  ret i32 %141
}