; Function Attrs: null_pointer_is_valid sspstrong uwtable
define internal fastcc i32 @parse_option(ptr noundef %0, ptr noundef %1, ptr noundef %2, i32 noundef %3) unnamed_addr #0 {
  %5 = alloca i32, align 4
  %6 = alloca i32, align 4
  %7 = alloca i32, align 4
  %8 = alloca i32, align 4
  call void @llvm.lifetime.start.p0(i64 4, ptr nonnull %5) #8
  store i32 0, ptr %5, align 4
  call void @llvm.lifetime.start.p0(i64 4, ptr nonnull %6) #8
  store i32 0, ptr %6, align 4
  call void @llvm.lifetime.start.p0(i64 4, ptr nonnull %7) #8
  store i32 0, ptr %7, align 4
  call void @llvm.lifetime.start.p0(i64 4, ptr nonnull %8) #8
  store i32 0, ptr %8, align 4
  %9 = load i32, ptr @hf_cql_result_rows_data_type, align 4
  %10 = call ptr @proto_tree_add_item_ret_uint(ptr noundef %0, i32 noundef %9, ptr noundef %2, i32 noundef %3, i32 noundef 2, i32 noundef 0, ptr noundef nonnull %5)
  %11 = add i32 %3, 2
  call void @increment_dissection_depth(ptr noundef %1)
  %12 = load i32, ptr %5, align 4
  switch i32 %12, label %.loopexit [
    i32 32, label %.loopexit.sink.split
    i32 33, label %13
    i32 34, label %.loopexit.sink.split
    i32 48, label %15
    i32 49, label %48
  ]

13:                                               ; preds = %4
  %14 = call fastcc i32 @parse_option(ptr noundef %0, ptr noundef %1, ptr noundef %2, i32 noundef %11)
  br label %.loopexit.sink.split

15:                                               ; preds = %4
  %16 = load i32, ptr @hf_cql_string_length, align 4
  %17 = call ptr @proto_tree_add_item_ret_uint(ptr noundef %0, i32 noundef %16, ptr noundef %2, i32 noundef %11, i32 noundef 2, i32 noundef 0, ptr noundef nonnull %6)
  %18 = add i32 %3, 4
  %19 = load i32, ptr @hf_cql_string_result_rows_keyspace_name, align 4
  %20 = load i32, ptr %6, align 4
  %21 = call ptr @proto_tree_add_item(ptr noundef %0, i32 noundef %19, ptr noundef %2, i32 noundef %18, i32 noundef %20, i32 noundef 2)
  %22 = load i32, ptr %6, align 4
  %23 = add i32 %22, %18
  %24 = load i32, ptr @hf_cql_string_length, align 4
  %25 = call ptr @proto_tree_add_item_ret_uint(ptr noundef %0, i32 noundef %24, ptr noundef %2, i32 noundef %23, i32 noundef 2, i32 noundef 0, ptr noundef nonnull %6)
  %26 = add i32 %23, 2
  %27 = load i32, ptr @hf_cql_string_result_rows_udt_name, align 4
  %28 = load i32, ptr %6, align 4
  %29 = call ptr @proto_tree_add_item(ptr noundef %0, i32 noundef %27, ptr noundef %2, i32 noundef %26, i32 noundef %28, i32 noundef 2)
  %30 = load i32, ptr %6, align 4
  %31 = add i32 %30, %26
  %32 = load i32, ptr @hf_cql_string_result_rows_udt_size, align 4
  %33 = call ptr @proto_tree_add_item_ret_uint(ptr noundef %0, i32 noundef %32, ptr noundef %2, i32 noundef %31, i32 noundef 2, i32 noundef 0, ptr noundef nonnull %8)
  %34 = add i32 %31, 2
  %35 = load i32, ptr %8, align 4
  %.not75 = icmp eq i32 %35, 0
  br i1 %.not75, label %.loopexit, label %.lr.ph73

.lr.ph73:                                         ; preds = %15, %.lr.ph73
  %.072 = phi i32 [ %45, %.lr.ph73 ], [ 0, %15 ]
  %.16771 = phi i32 [ %44, %.lr.ph73 ], [ %34, %15 ]
  %36 = load i32, ptr @hf_cql_string_length, align 4
  %37 = call ptr @proto_tree_add_item_ret_uint(ptr noundef %0, i32 noundef %36, ptr noundef %2, i32 noundef %.16771, i32 noundef 2, i32 noundef 0, ptr noundef nonnull %6)
  %38 = add i32 %.16771, 2
  %39 = load i32, ptr @hf_cql_string_result_rows_udt_field_name, align 4
  %40 = load i32, ptr %6, align 4
  %41 = call ptr @proto_tree_add_item(ptr noundef %0, i32 noundef %39, ptr noundef %2, i32 noundef %38, i32 noundef %40, i32 noundef 2)
  %42 = load i32, ptr %6, align 4
  %43 = add i32 %42, %38
  %44 = call fastcc i32 @parse_option(ptr noundef %0, ptr noundef %1, ptr noundef %2, i32 noundef %43)
  %45 = add nuw i32 %.072, 1
  %46 = load i32, ptr %8, align 4
  %47 = icmp ult i32 %45, %46
  br i1 %47, label %.lr.ph73, label %.loopexit, !llvm.loop !21

48:                                               ; preds = %4
  %49 = load i32, ptr @hf_cql_result_rows_tuple_size, align 4
  %50 = call ptr @proto_tree_add_item_ret_uint(ptr noundef %0, i32 noundef %49, ptr noundef %2, i32 noundef %11, i32 noundef 2, i32 noundef 0, ptr noundef nonnull %7)
  %51 = add i32 %3, 4
  %52 = load i32, ptr %7, align 4
  %.not = icmp eq i32 %52, 0
  br i1 %.not, label %.loopexit, label %.lr.ph

.lr.ph:                                           ; preds = %48, %.lr.ph
  %.170 = phi i32 [ %54, %.lr.ph ], [ 0, %48 ]
  %.269 = phi i32 [ %53, %.lr.ph ], [ %51, %48 ]
  %53 = call fastcc i32 @parse_option(ptr noundef %0, ptr noundef %1, ptr noundef %2, i32 noundef %.269)
  %54 = add nuw i32 %.170, 1
  %55 = load i32, ptr %7, align 4
  %56 = icmp ult i32 %54, %55
  br i1 %56, label %.lr.ph, label %.loopexit, !llvm.loop !22

.loopexit.sink.split:                             ; preds = %4, %4, %13
  %.sink = phi i32 [ %14, %13 ], [ %11, %4 ], [ %11, %4 ]
  %57 = call fastcc i32 @parse_option(ptr noundef %0, ptr noundef %1, ptr noundef %2, i32 noundef %.sink)
  br label %.loopexit

.loopexit:                                        ; preds = %.lr.ph, %.lr.ph73, %.loopexit.sink.split, %48, %15, %4
  %.066 = phi i32 [ %11, %4 ], [ %34, %15 ], [ %51, %48 ], [ %57, %.loopexit.sink.split ], [ %44, %.lr.ph73 ], [ %53, %.lr.ph ]
  call void @decrement_dissection_depth(ptr noundef %1)
  call void @llvm.lifetime.end.p0(i64 4, ptr nonnull %8) #8
  call void @llvm.lifetime.end.p0(i64 4, ptr nonnull %7) #8
  call void @llvm.lifetime.end.p0(i64 4, ptr nonnull %6) #8
  call void @llvm.lifetime.end.p0(i64 4, ptr nonnull %5) #8
  ret i32 %.066
}